target datalayout = "e-m:e-p270:32:32-p271:32:32-p272:64:64-i64:64-i128:128-f80:128-n8:16:32:64-S128"
target triple = "x86_64-pc-linux-gnu"

%struct.slurm_conf_t = type { i64, ptr, i16, ptr, ptr, ptr, ptr, ptr, i16, ptr, ptr, ptr, ptr, ptr, ptr, ptr, i16, ptr, ptr, ptr, ptr, i16, ptr, ptr, ptr, i64, ptr, ptr, ptr, ptr, i16, ptr, ptr, i16, i32, ptr, i32, ptr, i32, i32, ptr, ptr, i64, i64, ptr, i16, i16, ptr, i32, i32, ptr, i32, ptr, i32, i16, i16, i16, ptr, i16, i16, ptr, ptr, i32, i16, i16, ptr, i32, i16, ptr, ptr, ptr, ptr, i16, ptr, ptr, ptr, ptr, i32, ptr, ptr, ptr, ptr, i16, i16, ptr, i32, i32, i32, i16, i16, ptr, ptr, i16, ptr, ptr, i32, i32, i32, i32, i32, i64, i32, i32, i16, ptr, ptr, i32, ptr, ptr, ptr, i16, i32, ptr, ptr, i16, ptr, ptr, i32, i16, ptr, ptr, ptr, ptr, i32, i32, i16, i16, i32, ptr, i16, ptr, i32, i32, i32, i32, i32, i32, ptr, i16, ptr, ptr, i32, i16, ptr, i32, i16, i16, ptr, ptr, ptr, i16, ptr, ptr, ptr, ptr, i16, i16, ptr, i16, ptr, i16, ptr, i16, ptr, i16, ptr, ptr, ptr, ptr, i16, ptr, ptr, ptr, i32, ptr, i32, ptr, ptr, i16, ptr, ptr, i32, i16, ptr, ptr, i16, i16, ptr, i16, ptr, ptr, ptr, i32, ptr, i16, i16, ptr, ptr, ptr, ptr, ptr, ptr, ptr, ptr, i16, i32, i16, ptr, ptr, ptr, ptr, i32, ptr, ptr, ptr, i16, ptr, ptr, ptr, i16, ptr, i16, ptr, i16, i16, ptr }
%struct.sockaddr_storage = type { i16, [118 x i8], i64 }
%struct.forward = type { %struct.slurm_node_alias_addrs_t, i16, i16, ptr, i32, i16, i16 }
%struct.slurm_node_alias_addrs_t = type { i64, ptr, ptr, i32, ptr }
%struct.slurm_msg = type { %struct.sockaddr_storage, ptr, i32, i32, i32, i8, i32, i8, i32, ptr, ptr, i32, ptr, ptr, i16, i8, i16, i16, %struct.forward, ptr, %struct.sockaddr_storage, ptr }
%struct.persist_msg_t = type { ptr, ptr, i16 }
%struct.msg_bufs_t = type { ptr, ptr, ptr }
%struct.persist_conn_t = type { ptr, i32, i32, i8, ptr, ptr, ptr, i64, i16, i32, i16, i8, i32, i32, ptr, i16, ptr, i64, i32, ptr, %struct.slurm_trigger_callbacks_t, i16 }
%struct.slurm_trigger_callbacks_t = type { ptr, ptr, ptr, ptr, ptr }

@slurm_conf = external global %struct.slurm_conf_t, align 8
@.str.45 = private unnamed_addr constant [68 x i8] c"NET: %s: [%s] persistent connection has disappeared for msg_type=%s\00", align 1
@__func__.slurm_send_node_msg = private unnamed_addr constant [20 x i8] c"slurm_send_node_msg\00", align 1
@.str.46 = private unnamed_addr constant [56 x i8] c"%s: [%s] slurm_persist_send_msg(msg_type=%s) failed: %m\00", align 1
@.str.47 = private unnamed_addr constant [46 x i8] c"NET: %s: peer has disappeared for msg_type=%s\00", align 1
@.str.48 = private unnamed_addr constant [57 x i8] c"%s: slurm_bufs_sendto(fd=%d) with msg_type=%s failed: %m\00", align 1
@.str.49 = private unnamed_addr constant [51 x i8] c"%s: [%s] slurm_bufs_sendto(msg_type=%s) failed: %s\00", align 1

; Function Attrs: nounwind uwtable
define dso_local i32 @slurm_send_node_msg(i32 noundef %0, ptr noundef %1) #0 {
  %3 = alloca i32, align 4
  %4 = alloca i32, align 4
  %5 = alloca ptr, align 8
  %6 = alloca %struct.msg_bufs_t, align 8
  %7 = alloca i32, align 4
  %8 = alloca %struct.persist_msg_t, align 8
  %9 = alloca ptr, align 8
  %10 = alloca ptr, align 8
  %11 = alloca i32, align 4
  %12 = alloca i32, align 4
  %13 = alloca ptr, align 8
  store i32 %0, ptr %4, align 4
  store ptr %1, ptr %5, align 8
  call void @llvm.lifetime.start.p0(i64 24, ptr %6) #12
  call void @llvm.memset.p0.i64(ptr align 8 %6, i8 0, i64 24, i1 false)
  call void @llvm.lifetime.start.p0(i64 4, ptr %7) #12
  %14 = load ptr, ptr %5, align 8
  %15 = getelementptr inbounds nuw %struct.slurm_msg, ptr %14, i32 0, i32 10
  %16 = load ptr, ptr %15, align 8
  %17 = icmp ne ptr %16, null
  br i1 %17, label %18, label %110

18:                                               ; preds = %2
  call void @llvm.lifetime.start.p0(i64 24, ptr %8) #12
  call void @llvm.lifetime.start.p0(i64 8, ptr %9) #12
  call void @llvm.lifetime.start.p0(i64 8, ptr %10) #12
  store ptr null, ptr %10, align 8
  call void @llvm.memset.p0.i64(ptr align 8 %8, i8 0, i64 24, i1 false)
  %19 = load ptr, ptr %5, align 8
  %20 = getelementptr inbounds nuw %struct.slurm_msg, ptr %19, i32 0, i32 16
  %21 = load i16, ptr %20, align 4
  %22 = getelementptr inbounds nuw %struct.persist_msg_t, ptr %8, i32 0, i32 2
  store i16 %21, ptr %22, align 8
  %23 = load ptr, ptr %5, align 8
  %24 = getelementptr inbounds nuw %struct.slurm_msg, ptr %23, i32 0, i32 13
  %25 = load ptr, ptr %24, align 8
  %26 = getelementptr inbounds nuw %struct.persist_msg_t, ptr %8, i32 0, i32 1
  store ptr %25, ptr %26, align 8
  %27 = load ptr, ptr %5, align 8
  %28 = getelementptr inbounds nuw %struct.slurm_msg, ptr %27, i32 0, i32 10
  %29 = load ptr, ptr %28, align 8
  %30 = call ptr @slurm_persist_msg_pack(ptr noundef %29, ptr noundef %8)
  store ptr %30, ptr %9, align 8
  %31 = load ptr, ptr %9, align 8
  %32 = icmp ne ptr %31, null
  br i1 %32, label %34, label %33

33:                                               ; preds = %18
  store i32 -1, ptr %3, align 4
  store i32 1, ptr %11, align 4
  br label %109

34:                                               ; preds = %18
  %35 = load ptr, ptr %5, align 8
  %36 = getelementptr inbounds nuw %struct.slurm_msg, ptr %35, i32 0, i32 10
  %37 = load ptr, ptr %36, align 8
  %38 = load ptr, ptr %9, align 8
  %39 = call i32 @slurm_persist_send_msg(ptr noundef %37, ptr noundef %38)
  store i32 %39, ptr %7, align 4
  br label %40

40:                                               ; preds = %34
  %41 = load ptr, ptr %9, align 8
  %42 = icmp ne ptr %41, null
  br i1 %42, label %43, label %45

43:                                               ; preds = %40
  %44 = load ptr, ptr %9, align 8
  call void @free_buf(ptr noundef %44)
  br label %45

45:                                               ; preds = %43, %40
  store ptr null, ptr %9, align 8
  br label %46

46:                                               ; preds = %45
  br label %47

47:                                               ; preds = %46
  %48 = load i32, ptr %7, align 4
  %49 = icmp slt i32 %48, 0
  br i1 %49, label %50, label %59

50:                                               ; preds = %47
  %51 = load i32, ptr %4, align 4
  %52 = icmp slt i32 %51, 0
  br i1 %52, label %53, label %59

53:                                               ; preds = %50
  %54 = load ptr, ptr %5, align 8
  %55 = getelementptr inbounds nuw %struct.slurm_msg, ptr %54, i32 0, i32 10
  %56 = load ptr, ptr %55, align 8
  %57 = getelementptr inbounds nuw %struct.persist_conn_t, ptr %56, i32 0, i32 9
  %58 = load i32, ptr %57, align 4
  store i32 %58, ptr %4, align 4
  br label %59

59:                                               ; preds = %53, %50, %47
  %60 = load i32, ptr %7, align 4
  %61 = icmp slt i32 %60, 0
  br i1 %61, label %62, label %94

62:                                               ; preds = %59
  %63 = call ptr @__errno_location() #14
  %64 = load i32, ptr %63, align 4
  %65 = icmp eq i32 %64, 107
  br i1 %65, label %66, label %94

66:                                               ; preds = %62
  %67 = load i64, ptr getelementptr inbounds nuw (%struct.slurm_conf_t, ptr @slurm_conf, i32 0, i32 42), align 8
  %68 = and i64 %67, 1024
  %69 = icmp ne i64 %68, 0
  br i1 %69, label %70, label %73

70:                                               ; preds = %66
  %71 = load i32, ptr %4, align 4
  %72 = call ptr @fd_resolve_peer(i32 noundef %71)
  store ptr %72, ptr %10, align 8
  br label %73

73:                                               ; preds = %70, %66
  br label %74

74:                                               ; preds = %73
  %75 = load i64, ptr getelementptr inbounds nuw (%struct.slurm_conf_t, ptr @slurm_conf, i32 0, i32 42), align 8
  %76 = and i64 %75, 1024
  %77 = icmp ne i64 %76, 0
  br i1 %77, label %78, label %91

78:                                               ; preds = %74
  br label %79

79:                                               ; preds = %78
  %80 = call i32 @get_log_level()
  %81 = icmp sge i32 %80, 4
  br i1 %81, label %82, label %88

82:                                               ; preds = %79
  %83 = load ptr, ptr %10, align 8
  %84 = load ptr, ptr %5, align 8
  %85 = getelementptr inbounds nuw %struct.slurm_msg, ptr %84, i32 0, i32 16
  %86 = load i16, ptr %85, align 4
  %87 = call ptr @rpc_num2string(i16 noundef zeroext %86)
  call void (i32, ptr, ...) @log_var(i32 noundef 4, ptr noundef @.str.45, ptr noundef @__func__.slurm_send_node_msg, ptr noundef %83, ptr noundef %87)
  br label %88

88:                                               ; preds = %82, %79
  br label %89

89:                                               ; preds = %88
  br label %90

90:                                               ; preds = %89
  br label %91

91:                                               ; preds = %90, %74
  br label %92

92:                                               ; preds = %91
  br label %93

93:                                               ; preds = %92
  br label %107

94:                                               ; preds = %62, %59
  %95 = load i32, ptr %7, align 4
  %96 = icmp slt i32 %95, 0
  br i1 %96, label %97, label %106

97:                                               ; preds = %94
  %98 = load i32, ptr %4, align 4
  %99 = call ptr @fd_resolve_peer(i32 noundef %98)
  store ptr %99, ptr %10, align 8
  %100 = load ptr, ptr %10, align 8
  %101 = load ptr, ptr %5, align 8
  %102 = getelementptr inbounds nuw %struct.slurm_msg, ptr %101, i32 0, i32 16
  %103 = load i16, ptr %102, align 4
  %104 = call ptr @rpc_num2string(i16 noundef zeroext %103)
  %105 = call i32 (ptr, ...) @error(ptr noundef @.str.46, ptr noundef @__func__.slurm_send_node_msg, ptr noundef %100, ptr noundef %104)
  br label %106

106:                                              ; preds = %97, %94
  br label %107

107:                                              ; preds = %106, %93
  call void @slurm_xfree(ptr noundef %10)
  %108 = load i32, ptr %7, align 4
  store i32 %108, ptr %3, align 4
  store i32 1, ptr %11, align 4
  br label %109

109:                                              ; preds = %107, %33
  call void @llvm.lifetime.end.p0(i64 8, ptr %10) #12
  call void @llvm.lifetime.end.p0(i64 8, ptr %9) #12
  call void @llvm.lifetime.end.p0(i64 24, ptr %8) #12
  br label %208

110:                                              ; preds = %2
  %111 = load ptr, ptr %5, align 8
  %112 = call i32 @slurm_buffers_pack_msg(ptr noundef %111, ptr noundef %6, i1 noundef zeroext true)
  store i32 %112, ptr %7, align 4
  %113 = icmp ne i32 %112, 0
  br i1 %113, label %114, label %115

114:                                              ; preds = %110
  br label %173

115:                                              ; preds = %110
  %116 = load i32, ptr %4, align 4
  %117 = call i64 @slurm_bufs_sendto(i32 noundef %116, ptr noundef %6)
  %118 = trunc i64 %117 to i32
  store i32 %118, ptr %7, align 4
  %119 = load i32, ptr %7, align 4
  %120 = icmp sge i32 %119, 0
  br i1 %120, label %121, label %122

121:                                              ; preds = %115
  br label %172

122:                                              ; preds = %115
  %123 = call ptr @__errno_location() #14
  %124 = load i32, ptr %123, align 4
  %125 = icmp eq i32 %124, 107
  br i1 %125, label %126, label %146

126:                                              ; preds = %122
  br label %127

127:                                              ; preds = %126
  %128 = load i64, ptr getelementptr inbounds nuw (%struct.slurm_conf_t, ptr @slurm_conf, i32 0, i32 42), align 8
  %129 = and i64 %128, 1024
  %130 = icmp ne i64 %129, 0
  br i1 %130, label %131, label %143

131:                                              ; preds = %127
  br label %132

132:                                              ; preds = %131
  %133 = call i32 @get_log_level()
  %134 = icmp sge i32 %133, 4
  br i1 %134, label %135, label %140

135:                                              ; preds = %132
  %136 = load ptr, ptr %5, align 8
  %137 = getelementptr inbounds nuw %struct.slurm_msg, ptr %136, i32 0, i32 16
  %138 = load i16, ptr %137, align 4
  %139 = call ptr @rpc_num2string(i16 noundef zeroext %138)
  call void (i32, ptr, ...) @log_var(i32 noundef 4, ptr noundef @.str.47, ptr noundef @__func__.slurm_send_node_msg, ptr noundef %139)
  br label %140

140:                                              ; preds = %135, %132
  br label %141

141:                                              ; preds = %140
  br label %142

142:                                              ; preds = %141
  br label %143

143:                                              ; preds = %142, %127
  br label %144

144:                                              ; preds = %143
  br label %145

145:                                              ; preds = %144
  br label %171

146:                                              ; preds = %122
  %147 = call ptr @__errno_location() #14
  %148 = load i32, ptr %147, align 4
  %149 = icmp eq i32 %148, 9
  br i1 %149, label %150, label %157

150:                                              ; preds = %146
  %151 = load i32, ptr %4, align 4
  %152 = load ptr, ptr %5, align 8
  %153 = getelementptr inbounds nuw %struct.slurm_msg, ptr %152, i32 0, i32 16
  %154 = load i16, ptr %153, align 4
  %155 = call ptr @rpc_num2string(i16 noundef zeroext %154)
  %156 = call i32 (ptr, ...) @error(ptr noundef @.str.48, ptr noundef @__func__.slurm_send_node_msg, i32 noundef %151, ptr noundef %155)
  br label %170

157:                                              ; preds = %146
  call void @llvm.lifetime.start.p0(i64 4, ptr %12) #12
  %158 = call ptr @__errno_location() #14
  %159 = load i32, ptr %158, align 4
  store i32 %159, ptr %12, align 4
  call void @llvm.lifetime.start.p0(i64 8, ptr %13) #12
  %160 = load i32, ptr %4, align 4
  %161 = call ptr @fd_resolve_path(i32 noundef %160)
  store ptr %161, ptr %13, align 8
  %162 = load ptr, ptr %13, align 8
  %163 = load ptr, ptr %5, align 8
  %164 = getelementptr inbounds nuw %struct.slurm_msg, ptr %163, i32 0, i32 16
  %165 = load i16, ptr %164, align 4
  %166 = call ptr @rpc_num2string(i16 noundef zeroext %165)
  %167 = load i32, ptr %12, align 4
  %168 = call ptr @slurm_strerror(i32 noundef %167)
  %169 = call i32 (ptr, ...) @error(ptr noundef @.str.49, ptr noundef @__func__.slurm_send_node_msg, ptr noundef %162, ptr noundef %166, ptr noundef %168)
  call void @slurm_xfree(ptr noundef %13)
  call void @llvm.lifetime.end.p0(i64 8, ptr %13) #12
  call void @llvm.lifetime.end.p0(i64 4, ptr %12) #12
  br label %170

170:                                              ; preds = %157, %150
  br label %171

171:                                              ; preds = %170, %145
  br label %172

172:                                              ; preds = %171, %121
  br label %173

173:                                              ; preds = %172, %114
  br label %174

174:                                              ; preds = %173
  %175 = getelementptr inbounds nuw %struct.msg_bufs_t, ptr %6, i32 0, i32 0
  %176 = load ptr, ptr %175, align 8
  %177 = icmp ne ptr %176, null
  br i1 %177, label %178, label %181

178:                                              ; preds = %174
  %179 = getelementptr inbounds nuw %struct.msg_bufs_t, ptr %6, i32 0, i32 0
  %180 = load ptr, ptr %179, align 8
  call void @free_buf(ptr noundef %180)
  br label %181

181:                                              ; preds = %178, %174
  %182 = getelementptr inbounds nuw %struct.msg_bufs_t, ptr %6, i32 0, i32 0
  store ptr null, ptr %182, align 8
  br label %183

183:                                              ; preds = %181
  br label %184

184:                                              ; preds = %183
  br label %185

185:                                              ; preds = %184
  %186 = getelementptr inbounds nuw %struct.msg_bufs_t, ptr %6, i32 0, i32 1
  %187 = load ptr, ptr %186, align 8
  %188 = icmp ne ptr %187, null
  br i1 %188, label %189, label %192

189:                                              ; preds = %185
  %190 = getelementptr inbounds nuw %struct.msg_bufs_t, ptr %6, i32 0, i32 1
  %191 = load ptr, ptr %190, align 8
  call void @free_buf(ptr noundef %191)
  br label %192

192:                                              ; preds = %189, %185
  %193 = getelementptr inbounds nuw %struct.msg_bufs_t, ptr %6, i32 0, i32 1
  store ptr null, ptr %193, align 8
  br label %194

194:                                              ; preds = %192
  br label %195

195:                                              ; preds = %194
  br label %196

196:                                              ; preds = %195
  %197 = getelementptr inbounds nuw %struct.msg_bufs_t, ptr %6, i32 0, i32 2
  %198 = load ptr, ptr %197, align 8
  %199 = icmp ne ptr %198, null
  br i1 %199, label %200, label %203

200:                                              ; preds = %196
  %201 = getelementptr inbounds nuw %struct.msg_bufs_t, ptr %6, i32 0, i32 2
  %202 = load ptr, ptr %201, align 8
  call void @free_buf(ptr noundef %202)
  br label %203

203:                                              ; preds = %200, %196
  %204 = getelementptr inbounds nuw %struct.msg_bufs_t, ptr %6, i32 0, i32 2
  store ptr null, ptr %204, align 8
  br label %205

205:                                              ; preds = %203
  br label %206

206:                                              ; preds = %205
  %207 = load i32, ptr %7, align 4
  store i32 %207, ptr %3, align 4
  store i32 1, ptr %11, align 4
  br label %208

208:                                              ; preds = %206, %109
  call void @llvm.lifetime.end.p0(i64 4, ptr %7) #12
  call void @llvm.lifetime.end.p0(i64 24, ptr %6) #12
  %209 = load i32, ptr %3, align 4
  ret i32 %209
}