; Function Attrs: nounwind uwtable
define dso_local i32 @slurm_send_node_msg(i32 noundef %0, ptr noundef %1) local_unnamed_addr #1 {
  %3 = alloca %struct.msg_bufs_t, align 8
  %4 = alloca %struct.persist_msg_t, align 8
  %5 = alloca ptr, align 8
  %6 = alloca ptr, align 8
  call void @llvm.lifetime.start.p0(i64 24, ptr nonnull %3) #19
  call void @llvm.memset.p0.i64(ptr noundef nonnull align 8 dereferenceable(24) %3, i8 0, i64 24, i1 false)
  %7 = getelementptr inbounds nuw i8, ptr %1, i64 176
  %8 = load ptr, ptr %7, align 8
  %.not = icmp eq ptr %8, null
  br i1 %.not, label %49, label %9

9:                                                ; preds = %2
  call void @llvm.lifetime.start.p0(i64 24, ptr nonnull %4) #19
  call void @llvm.lifetime.start.p0(i64 8, ptr nonnull %5) #19
  store ptr null, ptr %5, align 8
  call void @llvm.memset.p0.i64(ptr noundef nonnull align 8 dereferenceable(24) %4, i8 0, i64 24, i1 false)
  %10 = getelementptr inbounds nuw i8, ptr %1, i64 212
  %11 = load i16, ptr %10, align 4
  %12 = getelementptr inbounds nuw i8, ptr %4, i64 16
  store i16 %11, ptr %12, align 8
  %13 = getelementptr inbounds nuw i8, ptr %1, i64 200
  %14 = load ptr, ptr %13, align 8
  %15 = getelementptr inbounds nuw i8, ptr %4, i64 8
  store ptr %14, ptr %15, align 8
  %16 = call ptr @slurm_persist_msg_pack(ptr noundef nonnull %8, ptr noundef nonnull %4) #19
  %.not45 = icmp eq ptr %16, null
  br i1 %.not45, label %48, label %17

17:                                               ; preds = %9
  %18 = load ptr, ptr %7, align 8
  %19 = call i32 @slurm_persist_send_msg(ptr noundef %18, ptr noundef nonnull %16) #19
  call void @free_buf(ptr noundef nonnull %16) #19
  %20 = icmp slt i32 %19, 0
  %21 = and i32 %19, %0
  %or.cond.not = icmp sgt i32 %21, -1
  br i1 %or.cond.not, label %26, label %22

22:                                               ; preds = %17
  %23 = load ptr, ptr %7, align 8
  %24 = getelementptr inbounds nuw i8, ptr %23, i64 60
  %25 = load i32, ptr %24, align 4
  br label %26

26:                                               ; preds = %22, %17
  %.031 = phi i32 [ %25, %22 ], [ %0, %17 ]
  br i1 %20, label %27, label %.critedge

27:                                               ; preds = %26
  %28 = tail call ptr @__errno_location() #21
  %29 = load i32, ptr %28, align 4
  %30 = icmp eq i32 %29, 107
  br i1 %30, label %31, label %43

31:                                               ; preds = %27
  %32 = load i64, ptr getelementptr inbounds nuw (i8, ptr @slurm_conf, i64 320), align 8
  %33 = and i64 %32, 1024
  %.not46 = icmp eq i64 %33, 0
  br i1 %.not46, label %.critedge, label %34

34:                                               ; preds = %31
  %35 = call ptr @fd_resolve_peer(i32 noundef %.031) #19
  store ptr %35, ptr %5, align 8
  %.pre = load i64, ptr getelementptr inbounds nuw (i8, ptr @slurm_conf, i64 320), align 8
  %.pre48 = and i64 %.pre, 1024
  %36 = icmp eq i64 %.pre48, 0
  br i1 %36, label %.critedge, label %37

37:                                               ; preds = %34
  %38 = call i32 @get_log_level() #19
  %39 = icmp sgt i32 %38, 3
  br i1 %39, label %40, label %.critedge

40:                                               ; preds = %37
  %41 = load i16, ptr %10, align 4
  %42 = call ptr @rpc_num2string(i16 noundef zeroext %41) #19
  call void (i32, ptr, ...) @log_var(i32 noundef 4, ptr noundef nonnull @.str.45, ptr noundef nonnull @__func__.slurm_send_node_msg, ptr noundef %35, ptr noundef %42) #19
  br label %.critedge

43:                                               ; preds = %27
  %44 = call ptr @fd_resolve_peer(i32 noundef %.031) #19
  store ptr %44, ptr %5, align 8
  %45 = load i16, ptr %10, align 4
  %46 = call ptr @rpc_num2string(i16 noundef zeroext %45) #19
  %47 = call i32 (ptr, ...) @error(ptr noundef nonnull @.str.46, ptr noundef nonnull @__func__.slurm_send_node_msg, ptr noundef %44, ptr noundef %46) #19
  br label %.critedge

.critedge:                                        ; preds = %31, %26, %43, %34, %40, %37
  call void @slurm_xfree(ptr noundef nonnull %5) #19
  br label %48

48:                                               ; preds = %9, %.critedge
  %.0 = phi i32 [ %19, %.critedge ], [ -1, %9 ]
  call void @llvm.lifetime.end.p0(i64 8, ptr nonnull %5) #19
  call void @llvm.lifetime.end.p0(i64 24, ptr nonnull %4) #19
  br label %91

49:                                               ; preds = %2
  %50 = call i32 @slurm_buffers_pack_msg(ptr noundef nonnull %1, ptr noundef nonnull %3, i1 noundef zeroext true)
  %.not40 = icmp eq i32 %50, 0
  br i1 %.not40, label %51, label %80

51:                                               ; preds = %49
  %52 = call i64 @slurm_bufs_sendto(i32 noundef %0, ptr noundef nonnull %3) #19
  %53 = trunc i64 %52 to i32
  %54 = icmp sgt i32 %53, -1
  br i1 %54, label %80, label %55

55:                                               ; preds = %51
  %56 = tail call ptr @__errno_location() #21
  %57 = load i32, ptr %56, align 4
  switch i32 %57, label %73 [
    i32 107, label %58
    i32 9, label %68
  ]

58:                                               ; preds = %55
  %59 = load i64, ptr getelementptr inbounds nuw (i8, ptr @slurm_conf, i64 320), align 8
  %60 = and i64 %59, 1024
  %.not41 = icmp eq i64 %60, 0
  br i1 %.not41, label %80, label %61

61:                                               ; preds = %58
  %62 = call i32 @get_log_level() #19
  %63 = icmp sgt i32 %62, 3
  br i1 %63, label %64, label %80

64:                                               ; preds = %61
  %65 = getelementptr inbounds nuw i8, ptr %1, i64 212
  %66 = load i16, ptr %65, align 4
  %67 = call ptr @rpc_num2string(i16 noundef zeroext %66) #19
  call void (i32, ptr, ...) @log_var(i32 noundef 4, ptr noundef nonnull @.str.47, ptr noundef nonnull @__func__.slurm_send_node_msg, ptr noundef %67) #19
  br label %80

68:                                               ; preds = %55
  %69 = getelementptr inbounds nuw i8, ptr %1, i64 212
  %70 = load i16, ptr %69, align 4
  %71 = call ptr @rpc_num2string(i16 noundef zeroext %70) #19
  %72 = call i32 (ptr, ...) @error(ptr noundef nonnull @.str.48, ptr noundef nonnull @__func__.slurm_send_node_msg, i32 noundef %0, ptr noundef %71) #19
  br label %80

73:                                               ; preds = %55
  call void @llvm.lifetime.start.p0(i64 8, ptr nonnull %6) #19
  %74 = call ptr @fd_resolve_path(i32 noundef %0) #19
  store ptr %74, ptr %6, align 8
  %75 = getelementptr inbounds nuw i8, ptr %1, i64 212
  %76 = load i16, ptr %75, align 4
  %77 = call ptr @rpc_num2string(i16 noundef zeroext %76) #19
  %78 = call ptr @slurm_strerror(i32 noundef %57) #19
  %79 = call i32 (ptr, ...) @error(ptr noundef nonnull @.str.49, ptr noundef nonnull @__func__.slurm_send_node_msg, ptr noundef %74, ptr noundef %77, ptr noundef %78) #19
  call void @slurm_xfree(ptr noundef nonnull %6) #19
  call void @llvm.lifetime.end.p0(i64 8, ptr nonnull %6) #19
  br label %80

80:                                               ; preds = %49, %61, %64, %58, %73, %68, %51
  %.030 = phi i32 [ -1, %49 ], [ %53, %51 ], [ %53, %64 ], [ %53, %61 ], [ %53, %58 ], [ %53, %68 ], [ %53, %73 ]
  %81 = load ptr, ptr %3, align 8
  %.not42 = icmp eq ptr %81, null
  br i1 %.not42, label %83, label %82

82:                                               ; preds = %80
  call void @free_buf(ptr noundef nonnull %81) #19
  br label %83

83:                                               ; preds = %82, %80
  store ptr null, ptr %3, align 8
  %84 = getelementptr inbounds nuw i8, ptr %3, i64 8
  %85 = load ptr, ptr %84, align 8
  %.not43 = icmp eq ptr %85, null
  br i1 %.not43, label %87, label %86

86:                                               ; preds = %83
  call void @free_buf(ptr noundef nonnull %85) #19
  br label %87

87:                                               ; preds = %86, %83
  store ptr null, ptr %84, align 8
  %88 = getelementptr inbounds nuw i8, ptr %3, i64 16
  %89 = load ptr, ptr %88, align 8
  %.not44 = icmp eq ptr %89, null
  br i1 %.not44, label %91, label %90

90:                                               ; preds = %87
  call void @free_buf(ptr noundef nonnull %89) #19
  br label %91

91:                                               ; preds = %87, %90, %48
  %.1 = phi i32 [ %.0, %48 ], [ %.030, %90 ], [ %.030, %87 ]
  call void @llvm.lifetime.end.p0(i64 24, ptr nonnull %3) #19
  ret i32 %.1
}